target datalayout = "e-m:e-p270:32:32-p271:32:32-p272:64:64-i64:64-i128:128-f80:128-n8:16:32:64-S128"
target triple = "x86_64-unknown-linux-gnu"

%"class.proxygen::GenericFilter" = type { %"class.proxygen::HTTPCodec", %"class.proxygen::HTTPCodec::Callback", i8, i8, ptr, ptr, ptr, ptr, ptr, ptr }
%"class.proxygen::HTTPCodec" = type { ptr }
%"class.proxygen::HTTPCodec::Callback" = type { ptr }

; Function Attrs: mustprogress uwtable
define void @_ZN8proxygen26PassThroughHTTPCodecFilter16onExMessageBeginEmmbPNS_11HTTPMessageE(ptr noundef nonnull align 8 dereferenceable(72) %this, i64 noundef %stream, i64 noundef %controlStream, i1 noundef zeroext %unidirectional, ptr noundef %msg) unnamed_addr #4 align 2 {
entry:
  %this.addr = alloca ptr, align 8
  %stream.addr = alloca i64, align 8
  %controlStream.addr = alloca i64, align 8
  %unidirectional.addr = alloca i8, align 1
  %msg.addr = alloca ptr, align 8
  store ptr %this, ptr %this.addr, align 8
  store i64 %stream, ptr %stream.addr, align 8
  store i64 %controlStream, ptr %controlStream.addr, align 8
  %frombool = zext i1 %unidirectional to i8
  store i8 %frombool, ptr %unidirectional.addr, align 1
  store ptr %msg, ptr %msg.addr, align 8
  %this1 = load ptr, ptr %this.addr, align 8
  %callback_ = getelementptr inbounds %"class.proxygen::GenericFilter", ptr %this1, i32 0, i32 5
  %0 = load ptr, ptr %callback_, align 8
  %1 = load i64, ptr %stream.addr, align 8
  %2 = load i64, ptr %controlStream.addr, align 8
  %3 = load i8, ptr %unidirectional.addr, align 1
  %tobool = trunc i8 %3 to i1
  %4 = load ptr, ptr %msg.addr, align 8
  %vtable = load ptr, ptr %0, align 8
  %vfn = getelementptr inbounds ptr, ptr %vtable, i64 2
  %5 = load ptr, ptr %vfn, align 8
  call void %5(ptr noundef nonnull align 8 dereferenceable(8) %0, i64 noundef %1, i64 noundef %2, i1 noundef zeroext %tobool, ptr noundef %4)
  ret void
}

; Function Attrs: uwtable
define void @_ZThn8_N8proxygen26PassThroughHTTPCodecFilter16onExMessageBeginEmmbPNS_11HTTPMessageE(ptr noundef %this, i64 noundef %stream, i64 noundef %controlStream, i1 noundef zeroext %unidirectional, ptr noundef %msg) unnamed_addr #0 align 2 {
entry:
  %this.addr = alloca ptr, align 8
  %stream.addr = alloca i64, align 8
  %controlStream.addr = alloca i64, align 8
  %unidirectional.addr = alloca i8, align 1
  %msg.addr = alloca ptr, align 8
  store ptr %this, ptr %this.addr, align 8
  store i64 %stream, ptr %stream.addr, align 8
  store i64 %controlStream, ptr %controlStream.addr, align 8
  %frombool = zext i1 %unidirectional to i8
  store i8 %frombool, ptr %unidirectional.addr, align 1
  store ptr %msg, ptr %msg.addr, align 8
  %this1 = load ptr, ptr %this.addr, align 8
  %0 = getelementptr inbounds i8, ptr %this1, i64 -8
  %1 = load i64, ptr %stream.addr, align 8
  %2 = load i64, ptr %controlStream.addr, align 8
  %3 = load i8, ptr %unidirectional.addr, align 1
  %tobool = trunc i8 %3 to i1
  %4 = load ptr, ptr %msg.addr, align 8
  tail call void @_ZN8proxygen26PassThroughHTTPCodecFilter16onExMessageBeginEmmbPNS_11HTTPMessageE(ptr noundef nonnull align 8 dereferenceable(72) %0, i64 noundef %1, i64 noundef %2, i1 noundef zeroext %tobool, ptr noundef %4)
  ret void
}