; Function Attrs: uwtable
define void @_ZThn8_N8proxygen26PassThroughHTTPCodecFilter16onExMessageBeginEmmbPNS_11HTTPMessageE(ptr nocapture noundef readonly %this, i64 noundef %stream, i64 noundef %controlStream, i1 noundef zeroext %unidirectional, ptr noundef %msg) unnamed_addr #4 align 2 {
entry:
  %callback_.i = getelementptr inbounds i8, ptr %this, i64 24
  %0 = load ptr, ptr %callback_.i, align 8
  %vtable.i = load ptr, ptr %0, align 8
  %vfn.i = getelementptr inbounds i8, ptr %vtable.i, i64 16
  %1 = load ptr, ptr %vfn.i, align 8
  tail call void %1(ptr noundef nonnull align 8 dereferenceable(8) %0, i64 noundef %stream, i64 noundef %controlStream, i1 noundef zeroext %unidirectional, ptr noundef %msg)
  ret void
}